(lp0
(lp1
I-1
aI-1
aI-1
aa(lp2
I-1
aI-1
aI0
aa(lp3
I-1
aI-1
aI1
aa(lp4
I-1
aI0
aI-1
aa(lp5
I-1
aI0
aI0
aa(lp6
I-1
aI0
aI1
aa(lp7
I-1
aI1
aI-1
aa(lp8
I-1
aI1
aI0
aa(lp9
I-1
aI1
aI1
aa(lp10
I0
aI-1
aI-1
aa(lp11
I0
aI-1
aI0
aa(lp12
I0
aI-1
aI1
aa(lp13
I0
aI0
aI-1
aa(lp14
I0
aI0
aI0
aa(lp15
I0
aI0
aI1
aa(lp16
I0
aI1
aI-1
aa(lp17
I0
aI1
aI0
aa(lp18
I0
aI1
aI1
aa(lp19
I1
aI-1
aI-1
aa(lp20
I1
aI-1
aI0
aa(lp21
I1
aI-1
aI1
aa(lp22
I1
aI0
aI-1
aa(lp23
I1
aI0
aI0
aa(lp24
I1
aI0
aI1
aa(lp25
I1
aI1
aI-1
aa(lp26
I1
aI1
aI0
aa(lp27
I1
aI1
aI1
aa.